; Function Attrs: nounwind uwtable
define range(i32 -1, 1) i32 @H5get_libversion(ptr noundef writeonly %0, ptr noundef writeonly %1, ptr noundef writeonly %2) local_unnamed_addr #0 {
  %4 = load i8, ptr @H5_libinit_g, align 1
  %5 = trunc i8 %4 to i1
  %6 = load i8, ptr @H5_libterm_g, align 1
  %7 = trunc i8 %6 to i1
  %8 = select i1 %5, i1 true, i1 %7
  br i1 %8, label %12, label %9

9:                                                ; preds = %3
  %10 = tail call i32 @H5_init_library()
  %11 = icmp slt i32 %10, 0
  br i1 %11, label %24, label %12

12:                                               ; preds = %9, %3
  %13 = tail call i32 @H5CX_push() #21
  %14 = icmp slt i32 %13, 0
  br i1 %14, label %24, label %15

15:                                               ; preds = %12
  %16 = tail call i32 @H5E_clear_stack() #21
  %.not = icmp eq ptr %0, null
  br i1 %.not, label %18, label %17

17:                                               ; preds = %15
  store i32 1, ptr %0, align 4
  br label %18

18:                                               ; preds = %17, %15
  %.not15 = icmp eq ptr %1, null
  br i1 %.not15, label %20, label %19

19:                                               ; preds = %18
  store i32 15, ptr %1, align 4
  br label %20

20:                                               ; preds = %19, %18
  %.not16 = icmp eq ptr %2, null
  br i1 %.not16, label %22, label %21

21:                                               ; preds = %20
  store i32 0, ptr %2, align 4
  br label %22

22:                                               ; preds = %20, %21
  %23 = tail call i32 @H5CX_pop(i1 noundef zeroext true) #21
  br label %29

24:                                               ; preds = %12, %9
  %H5E_CANTINIT_g.sink = phi ptr [ @H5E_CANTINIT_g, %9 ], [ @H5E_CANTSET_g, %12 ]
  %.str.66.sink = phi ptr [ @.str.66, %9 ], [ @.str.67, %12 ]
  %25 = load i64, ptr @H5E_FUNC_g, align 8
  %26 = load i64, ptr %H5E_CANTINIT_g.sink, align 8
  %27 = tail call i32 (ptr, ptr, i32, i64, i64, ptr, ...) @H5E_printf_stack(ptr noundef nonnull @.str.30, ptr noundef nonnull @__func__.H5get_libversion, i32 noundef 811, i64 noundef %25, i64 noundef %26, ptr noundef nonnull %.str.66.sink) #21
  %28 = tail call i32 @H5E_dump_api_stack() #21
  br label %29

29:                                               ; preds = %22, %24
  %.0112028 = phi i32 [ -1, %24 ], [ 0, %22 ]
  ret i32 %.0112028
}